target datalayout = "e-m:e-p270:32:32-p271:32:32-p272:64:64-i64:64-i128:128-f80:128-n8:16:32:64-S128"
target triple = "x86_64-pc-linux-gnu"

%struct.UConverterNamePieces = type { [60 x i8], [157 x i8], i32 }
%struct.UConverterLoadArgs = type { i32, i32, i8, i8, i16, i32, ptr, ptr, ptr }
%struct.UConverter = type { ptr, ptr, ptr, ptr, ptr, ptr, ptr, i32, i8, i8, i8, i8, i8, [7 x i8], i32, i32, i32, i32, i8, i8, i8, i8, i8, i8, i8, i8, [8 x i8], [32 x i8], [2 x i16], [2 x i16], [32 x i16], i32, [19 x i16], [31 x i8], i8, i8, i8, i32 }
%struct.UConverterDataCompoundText = type { [20 x ptr], i32 }

@.str = private unnamed_addr constant [25 x i8] c"icu-internal-compound-s1\00", align 1
@.str.1 = private unnamed_addr constant [25 x i8] c"icu-internal-compound-s2\00", align 1
@.str.2 = private unnamed_addr constant [25 x i8] c"icu-internal-compound-s3\00", align 1
@.str.3 = private unnamed_addr constant [25 x i8] c"icu-internal-compound-d1\00", align 1
@.str.4 = private unnamed_addr constant [25 x i8] c"icu-internal-compound-d2\00", align 1
@.str.5 = private unnamed_addr constant [25 x i8] c"icu-internal-compound-d3\00", align 1
@.str.6 = private unnamed_addr constant [25 x i8] c"icu-internal-compound-d4\00", align 1
@.str.7 = private unnamed_addr constant [25 x i8] c"icu-internal-compound-d5\00", align 1
@.str.8 = private unnamed_addr constant [25 x i8] c"icu-internal-compound-d6\00", align 1
@.str.9 = private unnamed_addr constant [25 x i8] c"icu-internal-compound-d7\00", align 1
@.str.10 = private unnamed_addr constant [24 x i8] c"icu-internal-compound-t\00", align 1
@.str.11 = private unnamed_addr constant [18 x i8] c"ibm-915_P100-1995\00", align 1
@.str.12 = private unnamed_addr constant [18 x i8] c"ibm-916_P100-1995\00", align 1
@.str.13 = private unnamed_addr constant [18 x i8] c"ibm-914_P100-1995\00", align 1
@.str.14 = private unnamed_addr constant [18 x i8] c"ibm-874_P100-1995\00", align 1
@.str.15 = private unnamed_addr constant [18 x i8] c"ibm-912_P100-1995\00", align 1
@.str.16 = private unnamed_addr constant [18 x i8] c"ibm-913_P100-2000\00", align 1
@.str.17 = private unnamed_addr constant [17 x i8] c"iso-8859_14-1998\00", align 1
@.str.18 = private unnamed_addr constant [18 x i8] c"ibm-923_P100-1998\00", align 1

; Function Attrs: mustprogress uwtable
define internal void @_ZL18_CompoundTextCloseP10UConverter(ptr noundef %0) #0 {
  %2 = alloca ptr, align 8
  %3 = alloca ptr, align 8
  %4 = alloca i32, align 4
  store ptr %0, ptr %2, align 8, !tbaa !3
  call void @llvm.lifetime.start.p0(i64 8, ptr %3) #10
  %5 = load ptr, ptr %2, align 8, !tbaa !3
  %6 = getelementptr inbounds nuw %struct.UConverter, ptr %5, i32 0, i32 2
  %7 = load ptr, ptr %6, align 8, !tbaa !9
  store ptr %7, ptr %3, align 8, !tbaa !8
  call void @llvm.lifetime.start.p0(i64 4, ptr %4) #10
  %8 = load ptr, ptr %2, align 8, !tbaa !3
  %9 = getelementptr inbounds nuw %struct.UConverter, ptr %8, i32 0, i32 2
  %10 = load ptr, ptr %9, align 8, !tbaa !9
  %11 = icmp ne ptr %10, null
  br i1 %11, label %12, label %41

12:                                               ; preds = %1
  store i32 0, ptr %4, align 4, !tbaa !24
  br label %13

13:                                               ; preds = %32, %12
  %14 = load i32, ptr %4, align 4, !tbaa !24
  %15 = icmp slt i32 %14, 20
  br i1 %15, label %16, label %35

16:                                               ; preds = %13
  %17 = load ptr, ptr %3, align 8, !tbaa !8
  %18 = getelementptr inbounds nuw %struct.UConverterDataCompoundText, ptr %17, i32 0, i32 0
  %19 = load i32, ptr %4, align 4, !tbaa !24
  %20 = sext i32 %19 to i64
  %21 = getelementptr inbounds [20 x ptr], ptr %18, i64 0, i64 %20
  %22 = load ptr, ptr %21, align 8, !tbaa !15
  %23 = icmp ne ptr %22, null
  br i1 %23, label %24, label %31

24:                                               ; preds = %16
  %25 = load ptr, ptr %3, align 8, !tbaa !8
  %26 = getelementptr inbounds nuw %struct.UConverterDataCompoundText, ptr %25, i32 0, i32 0
  %27 = load i32, ptr %4, align 4, !tbaa !24
  %28 = sext i32 %27 to i64
  %29 = getelementptr inbounds [20 x ptr], ptr %26, i64 0, i64 %28
  %30 = load ptr, ptr %29, align 8, !tbaa !15
  call void @ucnv_unloadSharedDataIfReady_77(ptr noundef %30)
  br label %31

31:                                               ; preds = %24, %16
  br label %32

32:                                               ; preds = %31
  %33 = load i32, ptr %4, align 4, !tbaa !24
  %34 = add nsw i32 %33, 1
  store i32 %34, ptr %4, align 4, !tbaa !24
  br label %13, !llvm.loop !25

35:                                               ; preds = %13
  %36 = load ptr, ptr %2, align 8, !tbaa !3
  %37 = getelementptr inbounds nuw %struct.UConverter, ptr %36, i32 0, i32 2
  %38 = load ptr, ptr %37, align 8, !tbaa !9
  call void @uprv_free_77(ptr noundef %38)
  %39 = load ptr, ptr %2, align 8, !tbaa !3
  %40 = getelementptr inbounds nuw %struct.UConverter, ptr %39, i32 0, i32 2
  store ptr null, ptr %40, align 8, !tbaa !9
  br label %41

41:                                               ; preds = %35, %1
  call void @llvm.lifetime.end.p0(i64 4, ptr %4) #10
  call void @llvm.lifetime.end.p0(i64 8, ptr %3) #10
  ret void
}

; Function Attrs: inlinehint mustprogress nounwind uwtable
define internal noundef signext i8 @_ZL9U_FAILURE10UErrorCode(i32 noundef %0) #6 {
  %2 = alloca i32, align 4
  store i32 %0, ptr %2, align 4, !tbaa !16
  %3 = load i32, ptr %2, align 4, !tbaa !16
  %4 = icmp sgt i32 %3, 0
  %5 = zext i1 %4 to i8
  ret i8 %5
}

; Function Attrs: mustprogress uwtable
define internal void @_ZL17_CompoundTextOpenP10UConverterP18UConverterLoadArgsP10UErrorCode(ptr noundef %0, ptr noundef %1, ptr noundef %2) #0 {
  %4 = alloca ptr, align 8
  %5 = alloca ptr, align 8
  %6 = alloca ptr, align 8
  %7 = alloca ptr, align 8
  %8 = alloca %struct.UConverterNamePieces, align 4
  %9 = alloca %struct.UConverterLoadArgs, align 8
  %10 = alloca i32, align 4
  store ptr %0, ptr %4, align 8, !tbaa !3
  store ptr %1, ptr %5, align 8, !tbaa !8
  store ptr %2, ptr %6, align 8, !tbaa !8
  %11 = call noalias ptr @uprv_malloc_77(i64 noundef 168) #9
  %12 = load ptr, ptr %4, align 8, !tbaa !3
  %13 = getelementptr inbounds nuw %struct.UConverter, ptr %12, i32 0, i32 2
  store ptr %11, ptr %13, align 8, !tbaa !9
  %14 = load ptr, ptr %4, align 8, !tbaa !3
  %15 = getelementptr inbounds nuw %struct.UConverter, ptr %14, i32 0, i32 2
  %16 = load ptr, ptr %15, align 8, !tbaa !9
  %17 = icmp ne ptr %16, null
  br i1 %17, label %18, label %138

18:                                               ; preds = %3
  call void @llvm.lifetime.start.p0(i64 8, ptr %7) #10
  %19 = load ptr, ptr %4, align 8, !tbaa !3
  %20 = getelementptr inbounds nuw %struct.UConverter, ptr %19, i32 0, i32 2
  %21 = load ptr, ptr %20, align 8, !tbaa !9
  store ptr %21, ptr %7, align 8, !tbaa !8
  call void @llvm.lifetime.start.p0(i64 224, ptr %8) #10
  call void @llvm.lifetime.start.p0(i64 40, ptr %9) #10
  call void @llvm.memset.p0.i64(ptr align 8 %9, i8 0, i64 40, i1 false)
  %22 = getelementptr inbounds %struct.UConverterLoadArgs, ptr %9, i32 0, i32 0
  store i32 40, ptr %22, align 8
  %23 = load ptr, ptr %7, align 8, !tbaa !8
  %24 = getelementptr inbounds nuw %struct.UConverterDataCompoundText, ptr %23, i32 0, i32 0
  %25 = getelementptr inbounds [20 x ptr], ptr %24, i64 0, i64 0
  store ptr null, ptr %25, align 8, !tbaa !15
  %26 = load ptr, ptr %6, align 8, !tbaa !8
  %27 = call ptr @ucnv_loadSharedData_77(ptr noundef @.str, ptr noundef %8, ptr noundef %9, ptr noundef %26)
  %28 = load ptr, ptr %7, align 8, !tbaa !8
  %29 = getelementptr inbounds nuw %struct.UConverterDataCompoundText, ptr %28, i32 0, i32 0
  %30 = getelementptr inbounds [20 x ptr], ptr %29, i64 0, i64 1
  store ptr %27, ptr %30, align 8, !tbaa !15
  %31 = load ptr, ptr %6, align 8, !tbaa !8
  %32 = call ptr @ucnv_loadSharedData_77(ptr noundef @.str.1, ptr noundef %8, ptr noundef %9, ptr noundef %31)
  %33 = load ptr, ptr %7, align 8, !tbaa !8
  %34 = getelementptr inbounds nuw %struct.UConverterDataCompoundText, ptr %33, i32 0, i32 0
  %35 = getelementptr inbounds [20 x ptr], ptr %34, i64 0, i64 2
  store ptr %32, ptr %35, align 8, !tbaa !15
  %36 = load ptr, ptr %6, align 8, !tbaa !8
  %37 = call ptr @ucnv_loadSharedData_77(ptr noundef @.str.2, ptr noundef %8, ptr noundef %9, ptr noundef %36)
  %38 = load ptr, ptr %7, align 8, !tbaa !8
  %39 = getelementptr inbounds nuw %struct.UConverterDataCompoundText, ptr %38, i32 0, i32 0
  %40 = getelementptr inbounds [20 x ptr], ptr %39, i64 0, i64 3
  store ptr %37, ptr %40, align 8, !tbaa !15
  %41 = load ptr, ptr %6, align 8, !tbaa !8
  %42 = call ptr @ucnv_loadSharedData_77(ptr noundef @.str.3, ptr noundef %8, ptr noundef %9, ptr noundef %41)
  %43 = load ptr, ptr %7, align 8, !tbaa !8
  %44 = getelementptr inbounds nuw %struct.UConverterDataCompoundText, ptr %43, i32 0, i32 0
  %45 = getelementptr inbounds [20 x ptr], ptr %44, i64 0, i64 4
  store ptr %42, ptr %45, align 8, !tbaa !15
  %46 = load ptr, ptr %6, align 8, !tbaa !8
  %47 = call ptr @ucnv_loadSharedData_77(ptr noundef @.str.4, ptr noundef %8, ptr noundef %9, ptr noundef %46)
  %48 = load ptr, ptr %7, align 8, !tbaa !8
  %49 = getelementptr inbounds nuw %struct.UConverterDataCompoundText, ptr %48, i32 0, i32 0
  %50 = getelementptr inbounds [20 x ptr], ptr %49, i64 0, i64 5
  store ptr %47, ptr %50, align 8, !tbaa !15
  %51 = load ptr, ptr %6, align 8, !tbaa !8
  %52 = call ptr @ucnv_loadSharedData_77(ptr noundef @.str.5, ptr noundef %8, ptr noundef %9, ptr noundef %51)
  %53 = load ptr, ptr %7, align 8, !tbaa !8
  %54 = getelementptr inbounds nuw %struct.UConverterDataCompoundText, ptr %53, i32 0, i32 0
  %55 = getelementptr inbounds [20 x ptr], ptr %54, i64 0, i64 6
  store ptr %52, ptr %55, align 8, !tbaa !15
  %56 = load ptr, ptr %6, align 8, !tbaa !8
  %57 = call ptr @ucnv_loadSharedData_77(ptr noundef @.str.6, ptr noundef %8, ptr noundef %9, ptr noundef %56)
  %58 = load ptr, ptr %7, align 8, !tbaa !8
  %59 = getelementptr inbounds nuw %struct.UConverterDataCompoundText, ptr %58, i32 0, i32 0
  %60 = getelementptr inbounds [20 x ptr], ptr %59, i64 0, i64 7
  store ptr %57, ptr %60, align 8, !tbaa !15
  %61 = load ptr, ptr %6, align 8, !tbaa !8
  %62 = call ptr @ucnv_loadSharedData_77(ptr noundef @.str.7, ptr noundef %8, ptr noundef %9, ptr noundef %61)
  %63 = load ptr, ptr %7, align 8, !tbaa !8
  %64 = getelementptr inbounds nuw %struct.UConverterDataCompoundText, ptr %63, i32 0, i32 0
  %65 = getelementptr inbounds [20 x ptr], ptr %64, i64 0, i64 8
  store ptr %62, ptr %65, align 8, !tbaa !15
  %66 = load ptr, ptr %6, align 8, !tbaa !8
  %67 = call ptr @ucnv_loadSharedData_77(ptr noundef @.str.8, ptr noundef %8, ptr noundef %9, ptr noundef %66)
  %68 = load ptr, ptr %7, align 8, !tbaa !8
  %69 = getelementptr inbounds nuw %struct.UConverterDataCompoundText, ptr %68, i32 0, i32 0
  %70 = getelementptr inbounds [20 x ptr], ptr %69, i64 0, i64 9
  store ptr %67, ptr %70, align 8, !tbaa !15
  %71 = load ptr, ptr %6, align 8, !tbaa !8
  %72 = call ptr @ucnv_loadSharedData_77(ptr noundef @.str.9, ptr noundef %8, ptr noundef %9, ptr noundef %71)
  %73 = load ptr, ptr %7, align 8, !tbaa !8
  %74 = getelementptr inbounds nuw %struct.UConverterDataCompoundText, ptr %73, i32 0, i32 0
  %75 = getelementptr inbounds [20 x ptr], ptr %74, i64 0, i64 10
  store ptr %72, ptr %75, align 8, !tbaa !15
  %76 = load ptr, ptr %6, align 8, !tbaa !8
  %77 = call ptr @ucnv_loadSharedData_77(ptr noundef @.str.10, ptr noundef %8, ptr noundef %9, ptr noundef %76)
  %78 = load ptr, ptr %7, align 8, !tbaa !8
  %79 = getelementptr inbounds nuw %struct.UConverterDataCompoundText, ptr %78, i32 0, i32 0
  %80 = getelementptr inbounds [20 x ptr], ptr %79, i64 0, i64 11
  store ptr %77, ptr %80, align 8, !tbaa !15
  %81 = load ptr, ptr %6, align 8, !tbaa !8
  %82 = call ptr @ucnv_loadSharedData_77(ptr noundef @.str.11, ptr noundef %8, ptr noundef %9, ptr noundef %81)
  %83 = load ptr, ptr %7, align 8, !tbaa !8
  %84 = getelementptr inbounds nuw %struct.UConverterDataCompoundText, ptr %83, i32 0, i32 0
  %85 = getelementptr inbounds [20 x ptr], ptr %84, i64 0, i64 12
  store ptr %82, ptr %85, align 8, !tbaa !15
  %86 = load ptr, ptr %6, align 8, !tbaa !8
  %87 = call ptr @ucnv_loadSharedData_77(ptr noundef @.str.12, ptr noundef %8, ptr noundef %9, ptr noundef %86)
  %88 = load ptr, ptr %7, align 8, !tbaa !8
  %89 = getelementptr inbounds nuw %struct.UConverterDataCompoundText, ptr %88, i32 0, i32 0
  %90 = getelementptr inbounds [20 x ptr], ptr %89, i64 0, i64 13
  store ptr %87, ptr %90, align 8, !tbaa !15
  %91 = load ptr, ptr %6, align 8, !tbaa !8
  %92 = call ptr @ucnv_loadSharedData_77(ptr noundef @.str.13, ptr noundef %8, ptr noundef %9, ptr noundef %91)
  %93 = load ptr, ptr %7, align 8, !tbaa !8
  %94 = getelementptr inbounds nuw %struct.UConverterDataCompoundText, ptr %93, i32 0, i32 0
  %95 = getelementptr inbounds [20 x ptr], ptr %94, i64 0, i64 14
  store ptr %92, ptr %95, align 8, !tbaa !15
  %96 = load ptr, ptr %6, align 8, !tbaa !8
  %97 = call ptr @ucnv_loadSharedData_77(ptr noundef @.str.14, ptr noundef %8, ptr noundef %9, ptr noundef %96)
  %98 = load ptr, ptr %7, align 8, !tbaa !8
  %99 = getelementptr inbounds nuw %struct.UConverterDataCompoundText, ptr %98, i32 0, i32 0
  %100 = getelementptr inbounds [20 x ptr], ptr %99, i64 0, i64 15
  store ptr %97, ptr %100, align 8, !tbaa !15
  %101 = load ptr, ptr %6, align 8, !tbaa !8
  %102 = call ptr @ucnv_loadSharedData_77(ptr noundef @.str.15, ptr noundef %8, ptr noundef %9, ptr noundef %101)
  %103 = load ptr, ptr %7, align 8, !tbaa !8
  %104 = getelementptr inbounds nuw %struct.UConverterDataCompoundText, ptr %103, i32 0, i32 0
  %105 = getelementptr inbounds [20 x ptr], ptr %104, i64 0, i64 16
  store ptr %102, ptr %105, align 8, !tbaa !15
  %106 = load ptr, ptr %6, align 8, !tbaa !8
  %107 = call ptr @ucnv_loadSharedData_77(ptr noundef @.str.16, ptr noundef %8, ptr noundef %9, ptr noundef %106)
  %108 = load ptr, ptr %7, align 8, !tbaa !8
  %109 = getelementptr inbounds nuw %struct.UConverterDataCompoundText, ptr %108, i32 0, i32 0
  %110 = getelementptr inbounds [20 x ptr], ptr %109, i64 0, i64 17
  store ptr %107, ptr %110, align 8, !tbaa !15
  %111 = load ptr, ptr %6, align 8, !tbaa !8
  %112 = call ptr @ucnv_loadSharedData_77(ptr noundef @.str.17, ptr noundef %8, ptr noundef %9, ptr noundef %111)
  %113 = load ptr, ptr %7, align 8, !tbaa !8
  %114 = getelementptr inbounds nuw %struct.UConverterDataCompoundText, ptr %113, i32 0, i32 0
  %115 = getelementptr inbounds [20 x ptr], ptr %114, i64 0, i64 18
  store ptr %112, ptr %115, align 8, !tbaa !15
  %116 = load ptr, ptr %6, align 8, !tbaa !8
  %117 = call ptr @ucnv_loadSharedData_77(ptr noundef @.str.18, ptr noundef %8, ptr noundef %9, ptr noundef %116)
  %118 = load ptr, ptr %7, align 8, !tbaa !8
  %119 = getelementptr inbounds nuw %struct.UConverterDataCompoundText, ptr %118, i32 0, i32 0
  %120 = getelementptr inbounds [20 x ptr], ptr %119, i64 0, i64 19
  store ptr %117, ptr %120, align 8, !tbaa !15
  %121 = load ptr, ptr %6, align 8, !tbaa !8
  %122 = load i32, ptr %121, align 4, !tbaa !16
  %123 = call noundef signext i8 @_ZL9U_FAILURE10UErrorCode(i32 noundef %122)
  %124 = icmp ne i8 %123, 0
  br i1 %124, label %130, label %125

125:                                              ; preds = %18
  %126 = load ptr, ptr %5, align 8, !tbaa !8
  %127 = getelementptr inbounds nuw %struct.UConverterLoadArgs, ptr %126, i32 0, i32 2
  %128 = load i8, ptr %127, align 8, !tbaa !18
  %129 = icmp ne i8 %128, 0
  br i1 %129, label %130, label %132

130:                                              ; preds = %125, %18
  %131 = load ptr, ptr %4, align 8, !tbaa !3
  call void @_ZL18_CompoundTextCloseP10UConverter(ptr noundef %131)
  store i32 1, ptr %10, align 4
  br label %135

132:                                              ; preds = %125
  %133 = load ptr, ptr %7, align 8, !tbaa !8
  %134 = getelementptr inbounds nuw %struct.UConverterDataCompoundText, ptr %133, i32 0, i32 1
  store i32 0, ptr %134, align 8, !tbaa !21
  store i32 0, ptr %10, align 4
  br label %135

135:                                              ; preds = %132, %130
  call void @llvm.lifetime.end.p0(i64 40, ptr %9) #10
  call void @llvm.lifetime.end.p0(i64 224, ptr %8) #10
  call void @llvm.lifetime.end.p0(i64 8, ptr %7) #10
  %136 = load i32, ptr %10, align 4
  switch i32 %136, label %141 [
    i32 0, label %137
    i32 1, label %140
  ]

137:                                              ; preds = %135
  br label %140

138:                                              ; preds = %3
  %139 = load ptr, ptr %6, align 8, !tbaa !8
  store i32 7, ptr %139, align 4, !tbaa !16
  br label %140

140:                                              ; preds = %135, %138, %137
  ret void

141:                                              ; preds = %135
  unreachable
}