; Function Attrs: mustprogress uwtable
define internal void @_ZL17_CompoundTextOpenP10UConverterP18UConverterLoadArgsP10UErrorCode(ptr noundef captures(none) initializes((16, 24)) %0, ptr noundef readonly captures(none) %1, ptr noundef %2) #0 {
  %4 = alloca %struct.UConverterNamePieces, align 4
  %5 = alloca %struct.UConverterLoadArgs, align 8
  %6 = tail call noalias dereferenceable_or_null(168) ptr @uprv_malloc_77(i64 noundef 168) #9
  %7 = getelementptr inbounds nuw i8, ptr %0, i64 16
  store ptr %6, ptr %7, align 8, !tbaa !3
  %.not = icmp eq ptr %6, null
  br i1 %.not, label %62, label %8

8:                                                ; preds = %3
  call void @llvm.lifetime.start.p0(i64 224, ptr nonnull %4) #10
  call void @llvm.lifetime.start.p0(i64 40, ptr nonnull %5) #10
  call void @llvm.memset.p0.i64(ptr noundef nonnull align 8 dereferenceable(40) %5, i8 0, i64 40, i1 false)
  store i32 40, ptr %5, align 8
  store ptr null, ptr %6, align 8, !tbaa !12
  %9 = call ptr @ucnv_loadSharedData_77(ptr noundef nonnull @.str, ptr noundef nonnull %4, ptr noundef nonnull %5, ptr noundef %2)
  %10 = getelementptr inbounds nuw i8, ptr %6, i64 8
  store ptr %9, ptr %10, align 8, !tbaa !12
  %11 = call ptr @ucnv_loadSharedData_77(ptr noundef nonnull @.str.1, ptr noundef nonnull %4, ptr noundef nonnull %5, ptr noundef %2)
  %12 = getelementptr inbounds nuw i8, ptr %6, i64 16
  store ptr %11, ptr %12, align 8, !tbaa !12
  %13 = call ptr @ucnv_loadSharedData_77(ptr noundef nonnull @.str.2, ptr noundef nonnull %4, ptr noundef nonnull %5, ptr noundef %2)
  %14 = getelementptr inbounds nuw i8, ptr %6, i64 24
  store ptr %13, ptr %14, align 8, !tbaa !12
  %15 = call ptr @ucnv_loadSharedData_77(ptr noundef nonnull @.str.3, ptr noundef nonnull %4, ptr noundef nonnull %5, ptr noundef %2)
  %16 = getelementptr inbounds nuw i8, ptr %6, i64 32
  store ptr %15, ptr %16, align 8, !tbaa !12
  %17 = call ptr @ucnv_loadSharedData_77(ptr noundef nonnull @.str.4, ptr noundef nonnull %4, ptr noundef nonnull %5, ptr noundef %2)
  %18 = getelementptr inbounds nuw i8, ptr %6, i64 40
  store ptr %17, ptr %18, align 8, !tbaa !12
  %19 = call ptr @ucnv_loadSharedData_77(ptr noundef nonnull @.str.5, ptr noundef nonnull %4, ptr noundef nonnull %5, ptr noundef %2)
  %20 = getelementptr inbounds nuw i8, ptr %6, i64 48
  store ptr %19, ptr %20, align 8, !tbaa !12
  %21 = call ptr @ucnv_loadSharedData_77(ptr noundef nonnull @.str.6, ptr noundef nonnull %4, ptr noundef nonnull %5, ptr noundef %2)
  %22 = getelementptr inbounds nuw i8, ptr %6, i64 56
  store ptr %21, ptr %22, align 8, !tbaa !12
  %23 = call ptr @ucnv_loadSharedData_77(ptr noundef nonnull @.str.7, ptr noundef nonnull %4, ptr noundef nonnull %5, ptr noundef %2)
  %24 = getelementptr inbounds nuw i8, ptr %6, i64 64
  store ptr %23, ptr %24, align 8, !tbaa !12
  %25 = call ptr @ucnv_loadSharedData_77(ptr noundef nonnull @.str.8, ptr noundef nonnull %4, ptr noundef nonnull %5, ptr noundef %2)
  %26 = getelementptr inbounds nuw i8, ptr %6, i64 72
  store ptr %25, ptr %26, align 8, !tbaa !12
  %27 = call ptr @ucnv_loadSharedData_77(ptr noundef nonnull @.str.9, ptr noundef nonnull %4, ptr noundef nonnull %5, ptr noundef %2)
  %28 = getelementptr inbounds nuw i8, ptr %6, i64 80
  store ptr %27, ptr %28, align 8, !tbaa !12
  %29 = call ptr @ucnv_loadSharedData_77(ptr noundef nonnull @.str.10, ptr noundef nonnull %4, ptr noundef nonnull %5, ptr noundef %2)
  %30 = getelementptr inbounds nuw i8, ptr %6, i64 88
  store ptr %29, ptr %30, align 8, !tbaa !12
  %31 = call ptr @ucnv_loadSharedData_77(ptr noundef nonnull @.str.11, ptr noundef nonnull %4, ptr noundef nonnull %5, ptr noundef %2)
  %32 = getelementptr inbounds nuw i8, ptr %6, i64 96
  store ptr %31, ptr %32, align 8, !tbaa !12
  %33 = call ptr @ucnv_loadSharedData_77(ptr noundef nonnull @.str.12, ptr noundef nonnull %4, ptr noundef nonnull %5, ptr noundef %2)
  %34 = getelementptr inbounds nuw i8, ptr %6, i64 104
  store ptr %33, ptr %34, align 8, !tbaa !12
  %35 = call ptr @ucnv_loadSharedData_77(ptr noundef nonnull @.str.13, ptr noundef nonnull %4, ptr noundef nonnull %5, ptr noundef %2)
  %36 = getelementptr inbounds nuw i8, ptr %6, i64 112
  store ptr %35, ptr %36, align 8, !tbaa !12
  %37 = call ptr @ucnv_loadSharedData_77(ptr noundef nonnull @.str.14, ptr noundef nonnull %4, ptr noundef nonnull %5, ptr noundef %2)
  %38 = getelementptr inbounds nuw i8, ptr %6, i64 120
  store ptr %37, ptr %38, align 8, !tbaa !12
  %39 = call ptr @ucnv_loadSharedData_77(ptr noundef nonnull @.str.15, ptr noundef nonnull %4, ptr noundef nonnull %5, ptr noundef %2)
  %40 = getelementptr inbounds nuw i8, ptr %6, i64 128
  store ptr %39, ptr %40, align 8, !tbaa !12
  %41 = call ptr @ucnv_loadSharedData_77(ptr noundef nonnull @.str.16, ptr noundef nonnull %4, ptr noundef nonnull %5, ptr noundef %2)
  %42 = getelementptr inbounds nuw i8, ptr %6, i64 136
  store ptr %41, ptr %42, align 8, !tbaa !12
  %43 = call ptr @ucnv_loadSharedData_77(ptr noundef nonnull @.str.17, ptr noundef nonnull %4, ptr noundef nonnull %5, ptr noundef %2)
  %44 = getelementptr inbounds nuw i8, ptr %6, i64 144
  store ptr %43, ptr %44, align 8, !tbaa !12
  %45 = call ptr @ucnv_loadSharedData_77(ptr noundef nonnull @.str.18, ptr noundef nonnull %4, ptr noundef nonnull %5, ptr noundef %2)
  %46 = getelementptr inbounds nuw i8, ptr %6, i64 152
  store ptr %45, ptr %46, align 8, !tbaa !12
  %47 = load i32, ptr %2, align 4, !tbaa !13
  %48 = icmp slt i32 %47, 1
  br i1 %48, label %49, label %52

49:                                               ; preds = %8
  %50 = getelementptr inbounds nuw i8, ptr %1, i64 8
  %51 = load i8, ptr %50, align 8, !tbaa !15
  %.not48 = icmp eq i8 %51, 0
  br i1 %.not48, label %60, label %52

52:                                               ; preds = %49, %8
  %53 = load ptr, ptr %7, align 8, !tbaa !3
  %.not.i = icmp eq ptr %53, null
  br i1 %.not.i, label %_ZL18_CompoundTextCloseP10UConverter.exit, label %.preheader.i

.preheader.i:                                     ; preds = %52, %57
  %indvars.iv.i = phi i64 [ %indvars.iv.next.i, %57 ], [ 0, %52 ]
  %54 = getelementptr inbounds nuw [20 x ptr], ptr %53, i64 0, i64 %indvars.iv.i
  %55 = load ptr, ptr %54, align 8, !tbaa !12
  %.not11.i = icmp eq ptr %55, null
  br i1 %.not11.i, label %57, label %56

56:                                               ; preds = %.preheader.i
  call void @ucnv_unloadSharedDataIfReady_77(ptr noundef nonnull %55)
  br label %57

57:                                               ; preds = %56, %.preheader.i
  %indvars.iv.next.i = add nuw nsw i64 %indvars.iv.i, 1
  %exitcond.not.i = icmp eq i64 %indvars.iv.next.i, 20
  br i1 %exitcond.not.i, label %58, label %.preheader.i, !llvm.loop !18

58:                                               ; preds = %57
  %59 = load ptr, ptr %7, align 8, !tbaa !3
  call void @uprv_free_77(ptr noundef %59)
  store ptr null, ptr %7, align 8, !tbaa !3
  br label %_ZL18_CompoundTextCloseP10UConverter.exit

60:                                               ; preds = %49
  %61 = getelementptr inbounds nuw i8, ptr %6, i64 160
  store i32 0, ptr %61, align 8, !tbaa !20
  br label %_ZL18_CompoundTextCloseP10UConverter.exit

_ZL18_CompoundTextCloseP10UConverter.exit:        ; preds = %58, %52, %60
  call void @llvm.lifetime.end.p0(i64 40, ptr nonnull %5) #10
  call void @llvm.lifetime.end.p0(i64 224, ptr nonnull %4) #10
  br label %63

62:                                               ; preds = %3
  store i32 7, ptr %2, align 4, !tbaa !13
  br label %63

63:                                               ; preds = %_ZL18_CompoundTextCloseP10UConverter.exit, %62
  ret void
}